target datalayout = "e-m:e-p270:32:32-p271:32:32-p272:64:64-i64:64-i128:128-f80:128-n8:16:32:64-S128"
target triple = "x86_64-pc-linux-gnu"

%struct._lv_roller_t = type { %struct._lv_obj_t, i32, i32, i32, i32, i8 }
%struct._lv_obj_t = type { ptr, ptr, ptr, ptr, ptr, %struct.lv_area_t, i32, i16, i16 }
%struct.lv_area_t = type { i32, i32, i32, i32 }
%union.lv_style_value_t = type { ptr }

; Function Attrs: inlinehint nounwind uwtable
define internal i32 @lv_obj_get_style_text_letter_space(ptr noundef %0, i32 noundef %1) #3 {
  %3 = alloca ptr, align 8
  %4 = alloca i32, align 4
  %5 = alloca %union.lv_style_value_t, align 8
  store ptr %0, ptr %3, align 8, !tbaa !8
  store i32 %1, ptr %4, align 4, !tbaa !24
  call void @llvm.lifetime.start.p0(i64 8, ptr %5) #6
  %6 = load ptr, ptr %3, align 8, !tbaa !8
  %7 = load i32, ptr %4, align 4, !tbaa !24
  %8 = call ptr @lv_obj_get_style_prop(ptr noundef %6, i32 noundef %7, i8 noundef zeroext 91)
  %9 = getelementptr inbounds nuw %union.lv_style_value_t, ptr %5, i32 0, i32 0
  store ptr %8, ptr %9, align 8
  %10 = load i32, ptr %5, align 8, !tbaa !41
  call void @llvm.lifetime.end.p0(i64 8, ptr %5) #6
  ret i32 %10
}

; Function Attrs: inlinehint nounwind uwtable
define internal ptr @lv_obj_get_style_text_font(ptr noundef %0, i32 noundef %1) #3 {
  %3 = alloca ptr, align 8
  %4 = alloca i32, align 4
  %5 = alloca %union.lv_style_value_t, align 8
  store ptr %0, ptr %3, align 8, !tbaa !8
  store i32 %1, ptr %4, align 4, !tbaa !24
  call void @llvm.lifetime.start.p0(i64 8, ptr %5) #6
  %6 = load ptr, ptr %3, align 8, !tbaa !8
  %7 = load i32, ptr %4, align 4, !tbaa !24
  %8 = call ptr @lv_obj_get_style_prop(ptr noundef %6, i32 noundef %7, i8 noundef zeroext 90)
  %9 = getelementptr inbounds nuw %union.lv_style_value_t, ptr %5, i32 0, i32 0
  store ptr %8, ptr %9, align 8
  %10 = load ptr, ptr %5, align 8, !tbaa !41
  call void @llvm.lifetime.end.p0(i64 8, ptr %5) #6
  ret ptr %10
}

; Function Attrs: nounwind uwtable
define internal ptr @get_label(ptr noundef %0) #0 {
  %2 = alloca ptr, align 8
  store ptr %0, ptr %2, align 8, !tbaa !8
  %3 = load ptr, ptr %2, align 8, !tbaa !8
  %4 = call ptr @lv_obj_get_child(ptr noundef %3, i32 noundef 0)
  ret ptr %4
}

; Function Attrs: nounwind uwtable
define void @lv_roller_set_options(ptr noundef %0, ptr noundef %1, i32 noundef %2) #0 {
  %4 = alloca ptr, align 8
  %5 = alloca ptr, align 8
  %6 = alloca i32, align 4
  %7 = alloca ptr, align 8
  %8 = alloca ptr, align 8
  %9 = alloca i32, align 4
  %10 = alloca ptr, align 8
  %11 = alloca i32, align 4
  %12 = alloca i64, align 8
  %13 = alloca i64, align 8
  %14 = alloca ptr, align 8
  %15 = alloca i32, align 4
  store ptr %0, ptr %4, align 8, !tbaa !8
  store ptr %1, ptr %5, align 8, !tbaa !39
  store i32 %2, ptr %6, align 4, !tbaa !24
  br label %16

16:                                               ; preds = %3
  %17 = load ptr, ptr %4, align 8, !tbaa !8
  %18 = icmp ne ptr %17, null
  br i1 %18, label %23, label %19

19:                                               ; preds = %16
  br label %20

20:                                               ; preds = %19
  br label %21

21:                                               ; preds = %20
  br label %22

22:                                               ; preds = %21, %22
  br label %22

23:                                               ; preds = %16
  br label %24

24:                                               ; preds = %23
  br label %25

25:                                               ; preds = %24
  %26 = load ptr, ptr %5, align 8, !tbaa !39
  %27 = icmp ne ptr %26, null
  br i1 %27, label %32, label %28

28:                                               ; preds = %25
  br label %29

29:                                               ; preds = %28
  br label %30

30:                                               ; preds = %29
  br label %31

31:                                               ; preds = %30, %31
  br label %31

32:                                               ; preds = %25
  br label %33

33:                                               ; preds = %32
  call void @llvm.lifetime.start.p0(i64 8, ptr %7) #6
  %34 = load ptr, ptr %4, align 8, !tbaa !8
  store ptr %34, ptr %7, align 8, !tbaa !10
  call void @llvm.lifetime.start.p0(i64 8, ptr %8) #6
  %35 = load ptr, ptr %4, align 8, !tbaa !8
  %36 = call ptr @get_label(ptr noundef %35)
  store ptr %36, ptr %8, align 8, !tbaa !8
  %37 = load ptr, ptr %7, align 8, !tbaa !10
  %38 = getelementptr inbounds nuw %struct._lv_roller_t, ptr %37, i32 0, i32 2
  store i32 0, ptr %38, align 4, !tbaa !20
  %39 = load ptr, ptr %7, align 8, !tbaa !10
  %40 = getelementptr inbounds nuw %struct._lv_roller_t, ptr %39, i32 0, i32 3
  store i32 0, ptr %40, align 8, !tbaa !21
  %41 = load ptr, ptr %7, align 8, !tbaa !10
  %42 = getelementptr inbounds nuw %struct._lv_roller_t, ptr %41, i32 0, i32 1
  store i32 0, ptr %42, align 8, !tbaa !12
  call void @llvm.lifetime.start.p0(i64 4, ptr %9) #6
  store i32 0, ptr %9, align 4, !tbaa !24
  br label %43

43:                                               ; preds = %65, %33
  %44 = load ptr, ptr %5, align 8, !tbaa !39
  %45 = load i32, ptr %9, align 4, !tbaa !24
  %46 = zext i32 %45 to i64
  %47 = getelementptr inbounds nuw i8, ptr %44, i64 %46
  %48 = load i8, ptr %47, align 1, !tbaa !41
  %49 = sext i8 %48 to i32
  %50 = icmp ne i32 %49, 0
  br i1 %50, label %51, label %68

51:                                               ; preds = %43
  %52 = load ptr, ptr %5, align 8, !tbaa !39
  %53 = load i32, ptr %9, align 4, !tbaa !24
  %54 = zext i32 %53 to i64
  %55 = getelementptr inbounds nuw i8, ptr %52, i64 %54
  %56 = load i8, ptr %55, align 1, !tbaa !41
  %57 = sext i8 %56 to i32
  %58 = icmp eq i32 %57, 10
  br i1 %58, label %59, label %64

59:                                               ; preds = %51
  %60 = load ptr, ptr %7, align 8, !tbaa !10
  %61 = getelementptr inbounds nuw %struct._lv_roller_t, ptr %60, i32 0, i32 1
  %62 = load i32, ptr %61, align 8, !tbaa !12
  %63 = add i32 %62, 1
  store i32 %63, ptr %61, align 8, !tbaa !12
  br label %64

64:                                               ; preds = %59, %51
  br label %65

65:                                               ; preds = %64
  %66 = load i32, ptr %9, align 4, !tbaa !24
  %67 = add i32 %66, 1
  store i32 %67, ptr %9, align 4, !tbaa !24
  br label %43, !llvm.loop !42

68:                                               ; preds = %43
  %69 = load ptr, ptr %7, align 8, !tbaa !10
  %70 = getelementptr inbounds nuw %struct._lv_roller_t, ptr %69, i32 0, i32 1
  %71 = load i32, ptr %70, align 8, !tbaa !12
  %72 = add i32 %71, 1
  store i32 %72, ptr %70, align 8, !tbaa !12
  %73 = load i32, ptr %6, align 4, !tbaa !24
  %74 = icmp eq i32 %73, 0
  br i1 %74, label %75, label %83

75:                                               ; preds = %68
  %76 = load ptr, ptr %7, align 8, !tbaa !10
  %77 = getelementptr inbounds nuw %struct._lv_roller_t, ptr %76, i32 0, i32 5
  %78 = load i8, ptr %77, align 8
  %79 = and i8 %78, -4
  %80 = or i8 %79, 0
  store i8 %80, ptr %77, align 8
  %81 = load ptr, ptr %8, align 8, !tbaa !8
  %82 = load ptr, ptr %5, align 8, !tbaa !39
  call void @lv_label_set_text(ptr noundef %81, ptr noundef %82)
  br label %209

83:                                               ; preds = %68
  %84 = load ptr, ptr %7, align 8, !tbaa !10
  %85 = getelementptr inbounds nuw %struct._lv_roller_t, ptr %84, i32 0, i32 5
  %86 = load i8, ptr %85, align 8
  %87 = and i8 %86, -4
  %88 = or i8 %87, 1
  store i8 %88, ptr %85, align 8
  call void @llvm.lifetime.start.p0(i64 8, ptr %10) #6
  %89 = load ptr, ptr %4, align 8, !tbaa !8
  %90 = call ptr @lv_obj_get_style_text_font(ptr noundef %89, i32 noundef 0)
  store ptr %90, ptr %10, align 8, !tbaa !44
  call void @llvm.lifetime.start.p0(i64 4, ptr %11) #6
  %91 = load ptr, ptr %7, align 8, !tbaa !10
  %92 = getelementptr inbounds nuw %struct._lv_roller_t, ptr %91, i32 0, i32 1
  %93 = load i32, ptr %92, align 8, !tbaa !12
  %94 = load ptr, ptr %10, align 8, !tbaa !44
  %95 = call i32 @lv_font_get_line_height(ptr noundef %94)
  %96 = load ptr, ptr %4, align 8, !tbaa !8
  %97 = call i32 @lv_obj_get_style_text_letter_space(ptr noundef %96, i32 noundef 0)
  %98 = add nsw i32 %95, %97
  %99 = mul i32 %93, %98
  store i32 %99, ptr %11, align 4, !tbaa !24
  %100 = load i32, ptr %11, align 4, !tbaa !24
  %101 = sdiv i32 1000, %100
  %102 = icmp slt i32 %101, 15
  br i1 %102, label %103, label %106

103:                                              ; preds = %83
  %104 = load i32, ptr %11, align 4, !tbaa !24
  %105 = sdiv i32 1000, %104
  br label %107

106:                                              ; preds = %83
  br label %107

107:                                              ; preds = %106, %103
  %108 = phi i32 [ %105, %103 ], [ 15, %106 ]
  %109 = icmp sgt i32 3, %108
  br i1 %109, label %110, label %111

110:                                              ; preds = %107
  br label %121

111:                                              ; preds = %107
  %112 = load i32, ptr %11, align 4, !tbaa !24
  %113 = sdiv i32 1000, %112
  %114 = icmp slt i32 %113, 15
  br i1 %114, label %115, label %118

115:                                              ; preds = %111
  %116 = load i32, ptr %11, align 4, !tbaa !24
  %117 = sdiv i32 1000, %116
  br label %119

118:                                              ; preds = %111
  br label %119

119:                                              ; preds = %118, %115
  %120 = phi i32 [ %117, %115 ], [ 15, %118 ]
  br label %121

121:                                              ; preds = %119, %110
  %122 = phi i32 [ 3, %110 ], [ %120, %119 ]
  %123 = load ptr, ptr %7, align 8, !tbaa !10
  %124 = getelementptr inbounds nuw %struct._lv_roller_t, ptr %123, i32 0, i32 4
  store i32 %122, ptr %124, align 4, !tbaa !46
  %125 = load ptr, ptr %7, align 8, !tbaa !10
  %126 = getelementptr inbounds nuw %struct._lv_roller_t, ptr %125, i32 0, i32 4
  %127 = load i32, ptr %126, align 4, !tbaa !46
  %128 = and i32 %127, 1
  %129 = icmp ne i32 %128, 0
  br i1 %129, label %135, label %130

130:                                              ; preds = %121
  %131 = load ptr, ptr %7, align 8, !tbaa !10
  %132 = getelementptr inbounds nuw %struct._lv_roller_t, ptr %131, i32 0, i32 4
  %133 = load i32, ptr %132, align 4, !tbaa !46
  %134 = add i32 %133, 1
  store i32 %134, ptr %132, align 4, !tbaa !46
  br label %135

135:                                              ; preds = %130, %121
  br label %136

136:                                              ; preds = %135
  br label %137

137:                                              ; preds = %136
  br label %138

138:                                              ; preds = %137
  call void @llvm.lifetime.start.p0(i64 8, ptr %12) #6
  %139 = load ptr, ptr %5, align 8, !tbaa !39
  %140 = call i64 @lv_strlen(ptr noundef %139)
  %141 = add i64 %140, 1
  store i64 %141, ptr %12, align 8, !tbaa !47
  call void @llvm.lifetime.start.p0(i64 8, ptr %13) #6
  %142 = load i64, ptr %12, align 8, !tbaa !47
  %143 = load ptr, ptr %7, align 8, !tbaa !10
  %144 = getelementptr inbounds nuw %struct._lv_roller_t, ptr %143, i32 0, i32 4
  %145 = load i32, ptr %144, align 4, !tbaa !46
  %146 = zext i32 %145 to i64
  %147 = mul i64 %142, %146
  store i64 %147, ptr %13, align 8, !tbaa !47
  %148 = load i64, ptr %13, align 8, !tbaa !47
  %149 = icmp eq i64 %148, 0
  br i1 %149, label %150, label %151

150:                                              ; preds = %138
  store i64 1, ptr %13, align 8, !tbaa !47
  br label %151

151:                                              ; preds = %150, %138
  call void @llvm.lifetime.start.p0(i64 8, ptr %14) #6
  %152 = load i64, ptr %13, align 8, !tbaa !47
  %153 = call ptr @lv_malloc(i64 noundef %152)
  store ptr %153, ptr %14, align 8, !tbaa !39
  call void @llvm.lifetime.start.p0(i64 4, ptr %15) #6
  store i32 0, ptr %15, align 4, !tbaa !24
  br label %154

154:                                              ; preds = %177, %151
  %155 = load i32, ptr %15, align 4, !tbaa !24
  %156 = load ptr, ptr %7, align 8, !tbaa !10
  %157 = getelementptr inbounds nuw %struct._lv_roller_t, ptr %156, i32 0, i32 4
  %158 = load i32, ptr %157, align 4, !tbaa !46
  %159 = icmp ult i32 %155, %158
  br i1 %159, label %160, label %180

160:                                              ; preds = %154
  %161 = load ptr, ptr %14, align 8, !tbaa !39
  %162 = load i64, ptr %12, align 8, !tbaa !47
  %163 = load i32, ptr %15, align 4, !tbaa !24
  %164 = zext i32 %163 to i64
  %165 = mul i64 %162, %164
  %166 = getelementptr inbounds nuw i8, ptr %161, i64 %165
  %167 = load ptr, ptr %5, align 8, !tbaa !39
  %168 = call ptr @lv_strcpy(ptr noundef %166, ptr noundef %167)
  %169 = load ptr, ptr %14, align 8, !tbaa !39
  %170 = load i64, ptr %12, align 8, !tbaa !47
  %171 = load i32, ptr %15, align 4, !tbaa !24
  %172 = add i32 %171, 1
  %173 = zext i32 %172 to i64
  %174 = mul i64 %170, %173
  %175 = sub i64 %174, 1
  %176 = getelementptr inbounds nuw i8, ptr %169, i64 %175
  store i8 10, ptr %176, align 1, !tbaa !41
  br label %177

177:                                              ; preds = %160
  %178 = load i32, ptr %15, align 4, !tbaa !24
  %179 = add i32 %178, 1
  store i32 %179, ptr %15, align 4, !tbaa !24
  br label %154, !llvm.loop !49

180:                                              ; preds = %154
  %181 = load ptr, ptr %14, align 8, !tbaa !39
  %182 = load i64, ptr %13, align 8, !tbaa !47
  %183 = sub i64 %182, 1
  %184 = getelementptr inbounds nuw i8, ptr %181, i64 %183
  store i8 0, ptr %184, align 1, !tbaa !41
  %185 = load ptr, ptr %8, align 8, !tbaa !8
  %186 = load ptr, ptr %14, align 8, !tbaa !39
  call void @lv_label_set_text(ptr noundef %185, ptr noundef %186)
  %187 = load ptr, ptr %14, align 8, !tbaa !39
  call void @lv_free(ptr noundef %187)
  %188 = load ptr, ptr %7, align 8, !tbaa !10
  %189 = getelementptr inbounds nuw %struct._lv_roller_t, ptr %188, i32 0, i32 4
  %190 = load i32, ptr %189, align 4, !tbaa !46
  %191 = udiv i32 %190, 2
  %192 = add i32 %191, 0
  %193 = load ptr, ptr %7, align 8, !tbaa !10
  %194 = getelementptr inbounds nuw %struct._lv_roller_t, ptr %193, i32 0, i32 1
  %195 = load i32, ptr %194, align 8, !tbaa !12
  %196 = mul i32 %192, %195
  %197 = load ptr, ptr %7, align 8, !tbaa !10
  %198 = getelementptr inbounds nuw %struct._lv_roller_t, ptr %197, i32 0, i32 2
  store i32 %196, ptr %198, align 4, !tbaa !20
  %199 = load ptr, ptr %7, align 8, !tbaa !10
  %200 = getelementptr inbounds nuw %struct._lv_roller_t, ptr %199, i32 0, i32 1
  %201 = load i32, ptr %200, align 8, !tbaa !12
  %202 = load ptr, ptr %7, align 8, !tbaa !10
  %203 = getelementptr inbounds nuw %struct._lv_roller_t, ptr %202, i32 0, i32 4
  %204 = load i32, ptr %203, align 4, !tbaa !46
  %205 = mul i32 %201, %204
  %206 = load ptr, ptr %7, align 8, !tbaa !10
  %207 = getelementptr inbounds nuw %struct._lv_roller_t, ptr %206, i32 0, i32 1
  store i32 %205, ptr %207, align 8, !tbaa !12
  %208 = load ptr, ptr %4, align 8, !tbaa !8
  call void @inf_normalize(ptr noundef %208)
  call void @llvm.lifetime.end.p0(i64 4, ptr %15) #6
  call void @llvm.lifetime.end.p0(i64 8, ptr %14) #6
  call void @llvm.lifetime.end.p0(i64 8, ptr %13) #6
  call void @llvm.lifetime.end.p0(i64 8, ptr %12) #6
  call void @llvm.lifetime.end.p0(i64 4, ptr %11) #6
  call void @llvm.lifetime.end.p0(i64 8, ptr %10) #6
  br label %209

209:                                              ; preds = %180, %75
  %210 = load ptr, ptr %7, align 8, !tbaa !10
  %211 = getelementptr inbounds nuw %struct._lv_roller_t, ptr %210, i32 0, i32 2
  %212 = load i32, ptr %211, align 4, !tbaa !20
  %213 = load ptr, ptr %7, align 8, !tbaa !10
  %214 = getelementptr inbounds nuw %struct._lv_roller_t, ptr %213, i32 0, i32 3
  store i32 %212, ptr %214, align 8, !tbaa !21
  %215 = load ptr, ptr %8, align 8, !tbaa !8
  call void @lv_obj_refresh_ext_draw_size(ptr noundef %215)
  call void @llvm.lifetime.end.p0(i64 4, ptr %9) #6
  call void @llvm.lifetime.end.p0(i64 8, ptr %8) #6
  call void @llvm.lifetime.end.p0(i64 8, ptr %7) #6
  ret void
}