; Function Attrs: nounwind uwtable
define void @lv_roller_set_options(ptr noundef %0, ptr noundef %1, i32 noundef %2) local_unnamed_addr #0 {
  %.not = icmp eq ptr %0, null
  br i1 %.not, label %.preheader, label %4

.preheader:                                       ; preds = %3, %.preheader
  br label %.preheader

4:                                                ; preds = %3
  %.not64 = icmp eq ptr %1, null
  br i1 %.not64, label %.preheader69, label %5

.preheader69:                                     ; preds = %4, %.preheader69
  br label %.preheader69

5:                                                ; preds = %4
  %6 = tail call ptr @lv_obj_get_child(ptr noundef nonnull %0, i32 noundef 0) #6
  %7 = getelementptr inbounds nuw i8, ptr %0, i64 68
  store i32 0, ptr %7, align 4, !tbaa !16
  %8 = getelementptr inbounds nuw i8, ptr %0, i64 72
  store i32 0, ptr %8, align 8, !tbaa !17
  %9 = getelementptr inbounds nuw i8, ptr %0, i64 64
  store i32 0, ptr %9, align 8, !tbaa !3
  br label %10

10:                                               ; preds = %17, %5
  %11 = phi i32 [ 0, %5 ], [ %18, %17 ]
  %.059 = phi i32 [ 0, %5 ], [ %19, %17 ]
  %12 = zext i32 %.059 to i64
  %13 = getelementptr inbounds nuw i8, ptr %1, i64 %12
  %14 = load i8, ptr %13, align 1, !tbaa !18
  switch i8 %14, label %17 [
    i8 0, label %20
    i8 10, label %15
  ]

15:                                               ; preds = %10
  %16 = add i32 %11, 1
  store i32 %16, ptr %9, align 8, !tbaa !3
  br label %17

17:                                               ; preds = %10, %15
  %18 = phi i32 [ %11, %10 ], [ %16, %15 ]
  %19 = add i32 %.059, 1
  br label %10, !llvm.loop !19

20:                                               ; preds = %10
  %21 = add i32 %11, 1
  store i32 %21, ptr %9, align 8, !tbaa !3
  %22 = icmp eq i32 %2, 0
  %23 = getelementptr inbounds nuw i8, ptr %0, i64 80
  %24 = load i8, ptr %23, align 8
  %25 = and i8 %24, -4
  br i1 %22, label %26, label %27

26:                                               ; preds = %20
  store i8 %25, ptr %23, align 8
  tail call void @lv_label_set_text(ptr noundef %6, ptr noundef nonnull %1) #6
  br label %60

27:                                               ; preds = %20
  %28 = or disjoint i8 %25, 1
  store i8 %28, ptr %23, align 8
  %29 = tail call ptr @lv_obj_get_style_prop(ptr noundef nonnull %0, i32 noundef 0, i8 noundef zeroext 90) #6
  %30 = load i32, ptr %9, align 8, !tbaa !3
  %31 = tail call i32 @lv_font_get_line_height(ptr noundef %29) #6
  %32 = tail call ptr @lv_obj_get_style_prop(ptr noundef nonnull %0, i32 noundef 0, i8 noundef zeroext 91) #6
  %33 = ptrtoint ptr %32 to i64
  %.sroa.0.0.extract.trunc.i = trunc i64 %33 to i32
  %34 = add nsw i32 %31, %.sroa.0.0.extract.trunc.i
  %35 = mul i32 %34, %30
  %36 = sdiv i32 1000, %35
  %spec.select67 = tail call i32 @llvm.smin.i32(i32 %36, i32 15)
  %37 = tail call i32 @llvm.smax.i32(i32 %spec.select67, i32 3)
  %38 = getelementptr inbounds nuw i8, ptr %0, i64 76
  %spec.select68 = or i32 %37, 1
  store i32 %spec.select68, ptr %38, align 4, !tbaa !42
  %39 = tail call i64 @lv_strlen(ptr noundef nonnull %1) #6
  %40 = add i64 %39, 1
  %41 = load i32, ptr %38, align 4, !tbaa !42
  %42 = zext i32 %41 to i64
  %43 = mul i64 %40, %42
  %spec.store.select = tail call i64 @llvm.umax.i64(i64 %43, i64 1)
  %44 = tail call ptr @lv_malloc(i64 noundef %spec.store.select) #6
  %invariant.gep = getelementptr i8, ptr %44, i64 -1
  %45 = load i32, ptr %38, align 4, !tbaa !42
  %.not71 = icmp eq i32 %45, 0
  br i1 %.not71, label %._crit_edge, label %.lr.ph

.lr.ph:                                           ; preds = %27, %.lr.ph
  %indvars.iv = phi i64 [ %indvars.iv.next, %.lr.ph ], [ 0, %27 ]
  %46 = mul i64 %40, %indvars.iv
  %47 = getelementptr inbounds nuw i8, ptr %44, i64 %46
  %48 = tail call ptr @lv_strcpy(ptr noundef %47, ptr noundef nonnull %1) #6
  %indvars.iv.next = add nuw nsw i64 %indvars.iv, 1
  %49 = mul i64 %40, %indvars.iv.next
  %gep = getelementptr i8, ptr %invariant.gep, i64 %49
  store i8 10, ptr %gep, align 1, !tbaa !18
  %50 = load i32, ptr %38, align 4, !tbaa !42
  %51 = zext i32 %50 to i64
  %52 = icmp samesign ult i64 %indvars.iv.next, %51
  br i1 %52, label %.lr.ph, label %._crit_edge, !llvm.loop !59

._crit_edge:                                      ; preds = %.lr.ph, %27
  %53 = getelementptr i8, ptr %44, i64 %spec.store.select
  %54 = getelementptr i8, ptr %53, i64 -1
  store i8 0, ptr %54, align 1, !tbaa !18
  tail call void @lv_label_set_text(ptr noundef %6, ptr noundef %44) #6
  tail call void @lv_free(ptr noundef %44) #6
  %55 = load i32, ptr %38, align 4, !tbaa !42
  %56 = lshr i32 %55, 1
  %57 = load i32, ptr %9, align 8, !tbaa !3
  %58 = mul i32 %56, %57
  store i32 %58, ptr %7, align 4, !tbaa !16
  %59 = mul i32 %57, %55
  store i32 %59, ptr %9, align 8, !tbaa !3
  tail call fastcc void @inf_normalize(ptr noundef nonnull %0)
  br label %60

60:                                               ; preds = %._crit_edge, %26
  %61 = load i32, ptr %7, align 4, !tbaa !16
  store i32 %61, ptr %8, align 8, !tbaa !17
  tail call void @lv_obj_refresh_ext_draw_size(ptr noundef %6) #6
  ret void
}